; Function Attrs: mustprogress uwtable
define dso_local void @_ZN15cmStateSnapshot14SetProjectNameERKNSt7__cxx1112basic_stringIcSt11char_traitsIcESaIcEEE(ptr noundef nonnull readonly align 8 captures(none) dereferenceable(24) %0, ptr noundef nonnull align 8 dereferenceable(32) %1) local_unnamed_addr #4 align 2 {
  %3 = getelementptr inbounds nuw i8, ptr %0, i64 8
  %4 = load ptr, ptr %3, align 8
  %5 = getelementptr inbounds nuw i8, ptr %0, i64 16
  %6 = load i64, ptr %5, align 8
  %7 = load ptr, ptr %4, align 8
  %8 = getelementptr %"struct.cmStateDetail::SnapshotDataType", ptr %7, i64 %6
  %9 = getelementptr i8, ptr %8, i64 -104
  %10 = load ptr, ptr %9, align 8
  %11 = getelementptr i8, ptr %8, i64 -96
  %12 = load i64, ptr %11, align 8
  %13 = load ptr, ptr %10, align 8
  %14 = getelementptr %"struct.cmStateDetail::BuildsystemDirectoryStateType", ptr %13, i64 %12
  %15 = getelementptr i8, ptr %14, i64 -112
  %16 = tail call noundef nonnull align 8 dereferenceable(32) ptr @_ZNSt7__cxx1112basic_stringIcSt11char_traitsIcESaIcEEaSERKS4_(ptr noundef nonnull align 8 dereferenceable(32) %15, ptr noundef nonnull align 8 dereferenceable(32) %1)
  ret void
}